target datalayout = "e-m:e-p270:32:32-p271:32:32-p272:64:64-i64:64-i128:128-f80:128-n8:16:32:64-S128"
target triple = "x86_64-pc-linux-gnu"

%struct.strvec = type { ptr, i64, i64 }
%struct.strbuf = type { i64, i64, ptr }
%struct.commit = type { %struct.object, i64, ptr, ptr, i32 }
%struct.object = type { i32, %struct.object_id }
%struct.object_id = type { [32 x i8], i32 }
%struct.oidset = type { %struct.kh_oid_set }
%struct.kh_oid_set = type { i32, i32, i32, i32, ptr, ptr, ptr }
%struct.commit_stack = type { ptr, i64, i64 }
%struct.commit_list = type { ptr, ptr }
%struct.rev_info = type { ptr, %struct.object_array, ptr, %struct.object_array, %struct.rev_cmdline_info, %struct.list_objects_filter_options, %struct.ref_exclusions, ptr, ptr, ptr, %struct.pathspec, i32, i32, i32, i32, i64, i32, i32, %struct.date_mode, i32, i32, i32, i32, ptr, i32, i32, ptr, ptr, i32, ptr, ptr, %struct.ident_split, ptr, i32, ptr, ptr, ptr, i32, i32, i32, ptr, %struct.grep_opt, ptr, i32, i32, i64, i64, i64, i32, i32, ptr, ptr, ptr, %struct.diff_options, %struct.diff_options, ptr, %struct.decoration, %struct.decoration, %struct.decoration, %struct.display_notes_opt, ptr, ptr, ptr, ptr, ptr, i32, ptr, i32, i32, i32, %struct.decoration, ptr, ptr, ptr, ptr, ptr, ptr, ptr, i32, ptr, i32, ptr, %struct.oidset }
%struct.object_array = type { i32, i32, ptr }
%struct.rev_cmdline_info = type { i32, i32, ptr }
%struct.list_objects_filter_options = type { %struct.strbuf, i32, i8, ptr, i64, i64, i32, i64, i64, ptr }
%struct.ref_exclusions = type { %struct.string_list, %struct.strvec, i8 }
%struct.string_list = type { ptr, i64, i64, i8, ptr }
%struct.pathspec = type { i32, i8, i32, i32, ptr }
%struct.date_mode = type { i32, i32, ptr }
%struct.ident_split = type { ptr, ptr, ptr, ptr, ptr, ptr, ptr, ptr }
%struct.grep_opt = type { ptr, ptr, ptr, ptr, ptr, ptr, i32, i32, i32, i32, i32, i32, i32, i32, i32, i32, i32, i32, i32, i32, i32, i32, i32, i32, i32, i32, i32, i32, i32, i32, i32, i32, [9 x [75 x i8]], i32, i32, i32, i32, i32, i32, i32, ptr, ptr, ptr }
%struct.diff_options = type { ptr, ptr, i32, i32, ptr, i32, ptr, i64, i64, ptr, ptr, ptr, ptr, %struct.diff_flags, i32, i32, i32, i32, i32, i32, i32, i32, i32, i32, i32, i32, i32, i32, i32, i32, i32, i32, i32, i32, i32, i32, ptr, i32, ptr, i32, i32, ptr, i64, i64, i32, i32, i32, i32, ptr, i32, i32, ptr, i32, i32, ptr, ptr, i32, [3 x i8], %struct.pathspec, ptr, ptr, ptr, ptr, ptr, ptr, ptr, ptr, i32, ptr, i32, i32, ptr, ptr, i32 }
%struct.diff_flags = type { i32, i32, i32, i32, i32, i32, i32, i32, i32, i32, i32, i32, i32, i32, i32, i32, i32, i32, i32, i32, i32, i32, i32, i32, i32, i32, i32, i32, i32, i32, i32, i32, i32, i32, i32 }
%struct.display_notes_opt = type { i32, %struct.string_list }
%struct.decoration = type { ptr, i32, i32, ptr }

; Function Attrs: nounwind uwtable
define internal void @commit_stack_clear(ptr noundef %0) #0 {
  %2 = alloca ptr, align 8
  store ptr %0, ptr %2, align 8, !tbaa !100
  br label %3

3:                                                ; preds = %1
  %4 = load ptr, ptr %2, align 8, !tbaa !100
  %5 = getelementptr inbounds nuw %struct.commit_stack, ptr %4, i32 0, i32 0
  %6 = load ptr, ptr %5, align 8, !tbaa !103
  call void @free(ptr noundef %6) #12
  %7 = load ptr, ptr %2, align 8, !tbaa !100
  %8 = getelementptr inbounds nuw %struct.commit_stack, ptr %7, i32 0, i32 0
  store ptr null, ptr %8, align 8, !tbaa !103
  br label %9

9:                                                ; preds = %3
  %10 = load ptr, ptr %2, align 8, !tbaa !100
  %11 = getelementptr inbounds nuw %struct.commit_stack, ptr %10, i32 0, i32 2
  store i64 0, ptr %11, align 8, !tbaa !104
  %12 = load ptr, ptr %2, align 8, !tbaa !100
  %13 = getelementptr inbounds nuw %struct.commit_stack, ptr %12, i32 0, i32 1
  store i64 0, ptr %13, align 8, !tbaa !96
  ret void
}

; Function Attrs: nounwind uwtable
define internal ptr @commit_stack_pop(ptr noundef %0) #0 {
  %2 = alloca ptr, align 8
  store ptr %0, ptr %2, align 8, !tbaa !100
  %3 = load ptr, ptr %2, align 8, !tbaa !100
  %4 = getelementptr inbounds nuw %struct.commit_stack, ptr %3, i32 0, i32 1
  %5 = load i64, ptr %4, align 8, !tbaa !96
  %6 = icmp ne i64 %5, 0
  br i1 %6, label %7, label %17

7:                                                ; preds = %1
  %8 = load ptr, ptr %2, align 8, !tbaa !100
  %9 = getelementptr inbounds nuw %struct.commit_stack, ptr %8, i32 0, i32 0
  %10 = load ptr, ptr %9, align 8, !tbaa !103
  %11 = load ptr, ptr %2, align 8, !tbaa !100
  %12 = getelementptr inbounds nuw %struct.commit_stack, ptr %11, i32 0, i32 1
  %13 = load i64, ptr %12, align 8, !tbaa !96
  %14 = add i64 %13, -1
  store i64 %14, ptr %12, align 8, !tbaa !96
  %15 = getelementptr inbounds nuw ptr, ptr %10, i64 %14
  %16 = load ptr, ptr %15, align 8, !tbaa !24
  br label %18

17:                                               ; preds = %1
  br label %18

18:                                               ; preds = %17, %7
  %19 = phi ptr [ %16, %7 ], [ null, %17 ]
  ret ptr %19
}

; Function Attrs: nounwind uwtable
define dso_local void @mark_parents_uninteresting(ptr noundef %0, ptr noundef %1) #0 {
  %3 = alloca ptr, align 8
  %4 = alloca ptr, align 8
  %5 = alloca %struct.commit_stack, align 8
  %6 = alloca ptr, align 8
  store ptr %0, ptr %3, align 8, !tbaa !88
  store ptr %1, ptr %4, align 8, !tbaa !24
  call void @llvm.lifetime.start.p0(i64 24, ptr %5) #12
  call void @llvm.memset.p0.i64(ptr align 8 %5, i8 0, i64 24, i1 false)
  call void @llvm.lifetime.start.p0(i64 8, ptr %6) #12
  %7 = load ptr, ptr %4, align 8, !tbaa !24
  %8 = getelementptr inbounds nuw %struct.commit, ptr %7, i32 0, i32 2
  %9 = load ptr, ptr %8, align 8, !tbaa !90
  store ptr %9, ptr %6, align 8, !tbaa !91
  br label %10

10:                                               ; preds = %30, %2
  %11 = load ptr, ptr %6, align 8, !tbaa !91
  %12 = icmp ne ptr %11, null
  br i1 %12, label %13, label %34

13:                                               ; preds = %10
  %14 = load ptr, ptr %3, align 8, !tbaa !88
  %15 = load ptr, ptr %6, align 8, !tbaa !91
  %16 = getelementptr inbounds nuw %struct.commit_list, ptr %15, i32 0, i32 0
  %17 = load ptr, ptr %16, align 8, !tbaa !92
  call void @mark_one_parent_uninteresting(ptr noundef %14, ptr noundef %17, ptr noundef %5)
  %18 = load ptr, ptr %3, align 8, !tbaa !88
  %19 = icmp ne ptr %18, null
  br i1 %19, label %20, label %29

20:                                               ; preds = %13
  %21 = load ptr, ptr %3, align 8, !tbaa !88
  %22 = getelementptr inbounds nuw %struct.rev_info, ptr %21, i32 0, i32 15
  %23 = load i64, ptr %22, align 8
  %24 = lshr i64 %23, 39
  %25 = and i64 %24, 1
  %26 = trunc i64 %25 to i32
  %27 = icmp ne i32 %26, 0
  br i1 %27, label %28, label %29

28:                                               ; preds = %20
  br label %34

29:                                               ; preds = %20, %13
  br label %30

30:                                               ; preds = %29
  %31 = load ptr, ptr %6, align 8, !tbaa !91
  %32 = getelementptr inbounds nuw %struct.commit_list, ptr %31, i32 0, i32 1
  %33 = load ptr, ptr %32, align 8, !tbaa !94
  store ptr %33, ptr %6, align 8, !tbaa !91
  br label %10, !llvm.loop !95

34:                                               ; preds = %28, %10
  br label %35

35:                                               ; preds = %39, %34
  %36 = getelementptr inbounds nuw %struct.commit_stack, ptr %5, i32 0, i32 1
  %37 = load i64, ptr %36, align 8, !tbaa !96
  %38 = icmp ugt i64 %37, 0
  br i1 %38, label %39, label %42

39:                                               ; preds = %35
  %40 = load ptr, ptr %3, align 8, !tbaa !88
  %41 = call ptr @commit_stack_pop(ptr noundef %5)
  call void @mark_one_parent_uninteresting(ptr noundef %40, ptr noundef %41, ptr noundef %5)
  br label %35, !llvm.loop !99

42:                                               ; preds = %35
  call void @commit_stack_clear(ptr noundef %5)
  call void @llvm.lifetime.end.p0(i64 8, ptr %6) #12
  call void @llvm.lifetime.end.p0(i64 24, ptr %5) #12
  ret void
}