; Function Attrs: nounwind uwtable
define dso_local void @mark_parents_uninteresting(ptr noundef %0, ptr noundef readonly captures(none) %1) local_unnamed_addr #2 {
  %3 = alloca %struct.commit_stack, align 8
  call void @llvm.lifetime.start.p0(i64 24, ptr nonnull %3) #26
  call void @llvm.memset.p0.i64(ptr noundef nonnull align 8 dereferenceable(24) %3, i8 0, i64 24, i1 false)
  %4 = getelementptr inbounds nuw i8, ptr %1, i64 48
  %5 = getelementptr inbounds nuw i8, ptr %0, i64 288
  %.012 = load ptr, ptr %4, align 8, !tbaa !58
  %.not13 = icmp eq ptr %.012, null
  br i1 %.not13, label %._crit_edge, label %.lr.ph

.lr.ph:                                           ; preds = %2
  %.not9 = icmp eq ptr %0, null
  br i1 %.not9, label %.lr.ph.split.us, label %.lr.ph.split

.lr.ph.split.us:                                  ; preds = %.lr.ph, %.lr.ph.split.us
  %.014.us = phi ptr [ %.0.us, %.lr.ph.split.us ], [ %.012, %.lr.ph ]
  %6 = load ptr, ptr %.014.us, align 8, !tbaa !59
  call fastcc void @mark_one_parent_uninteresting(ptr noundef null, ptr noundef %6, ptr noundef %3)
  %7 = getelementptr inbounds nuw i8, ptr %.014.us, i64 8
  %.0.us = load ptr, ptr %7, align 8, !tbaa !58
  %.not.us = icmp eq ptr %.0.us, null
  br i1 %.not.us, label %._crit_edge, label %.lr.ph.split.us, !llvm.loop !62

.lr.ph.split:                                     ; preds = %.lr.ph, %11
  %.014 = phi ptr [ %.0, %11 ], [ %.012, %.lr.ph ]
  %8 = load ptr, ptr %.014, align 8, !tbaa !59
  call fastcc void @mark_one_parent_uninteresting(ptr noundef nonnull %0, ptr noundef %8, ptr noundef %3)
  %9 = load i64, ptr %5, align 8
  %10 = and i64 %9, 549755813888
  %.not10 = icmp eq i64 %10, 0
  br i1 %.not10, label %11, label %._crit_edge

11:                                               ; preds = %.lr.ph.split
  %12 = getelementptr inbounds nuw i8, ptr %.014, i64 8
  %.0 = load ptr, ptr %12, align 8, !tbaa !58
  %.not = icmp eq ptr %.0, null
  br i1 %.not, label %._crit_edge, label %.lr.ph.split, !llvm.loop !62

._crit_edge:                                      ; preds = %11, %.lr.ph.split, %.lr.ph.split.us, %2
  %13 = getelementptr inbounds nuw i8, ptr %3, i64 8
  %14 = load i64, ptr %13, align 8, !tbaa !63
  %.not1116 = icmp eq i64 %14, 0
  br i1 %.not1116, label %._crit_edge17, label %commit_stack_pop.exit

commit_stack_pop.exit:                            ; preds = %._crit_edge, %commit_stack_pop.exit
  %15 = phi i64 [ %20, %commit_stack_pop.exit ], [ %14, %._crit_edge ]
  %16 = load ptr, ptr %3, align 8, !tbaa !66
  %17 = add i64 %15, -1
  store i64 %17, ptr %13, align 8, !tbaa !63
  %18 = getelementptr inbounds nuw ptr, ptr %16, i64 %17
  %19 = load ptr, ptr %18, align 8, !tbaa !67
  call fastcc void @mark_one_parent_uninteresting(ptr noundef %0, ptr noundef %19, ptr noundef %3)
  %20 = load i64, ptr %13, align 8, !tbaa !63
  %.not11 = icmp eq i64 %20, 0
  br i1 %.not11, label %._crit_edge17, label %commit_stack_pop.exit, !llvm.loop !68

._crit_edge17:                                    ; preds = %commit_stack_pop.exit, %._crit_edge
  %21 = load ptr, ptr %3, align 8, !tbaa !66
  tail call void @free(ptr noundef %21) #26
  call void @llvm.lifetime.end.p0(i64 24, ptr nonnull %3) #26
  ret void
}